target datalayout = "e-m:e-p270:32:32-p271:32:32-p272:64:64-i64:64-i128:128-f80:128-n8:16:32:64-S128"
target triple = "x86_64-unknown-linux-gnu"

%"class.absl::Span.34" = type { ptr, i64 }
%"class.absl::random_internal::PoolURBG.43" = type { i64, [8 x i32] }

; Function Attrs: mustprogress nounwind uwtable
define linkonce_odr dso_local void @_ZN4absl4SpanIjEC2EPjm(ptr noundef nonnull align 8 dereferenceable(16) %this, ptr noundef %array, i64 noundef %length) unnamed_addr #5 comdat align 2 {
entry:
  %this.addr = alloca ptr, align 8
  %array.addr = alloca ptr, align 8
  %length.addr = alloca i64, align 8
  store ptr %this, ptr %this.addr, align 8
  store ptr %array, ptr %array.addr, align 8
  store i64 %length, ptr %length.addr, align 8
  %this1 = load ptr, ptr %this.addr, align 8
  %ptr_ = getelementptr inbounds %"class.absl::Span.34", ptr %this1, i32 0, i32 0
  %0 = load ptr, ptr %array.addr, align 8
  store ptr %0, ptr %ptr_, align 8
  %len_ = getelementptr inbounds %"class.absl::Span.34", ptr %this1, i32 0, i32 1
  %1 = load i64, ptr %length.addr, align 8
  store i64 %1, ptr %len_, align 8
  ret void
}

; Function Attrs: mustprogress nounwind uwtable
define linkonce_odr dso_local void @_ZN4absl15random_internal8PoolURBGIjLm8EEC2ERKS2_(ptr noundef nonnull align 8 dereferenceable(40) %this, ptr noundef nonnull align 8 dereferenceable(40) %0) unnamed_addr #5 comdat align 2 {
entry:
  %this.addr = alloca ptr, align 8
  %.addr = alloca ptr, align 8
  store ptr %this, ptr %this.addr, align 8
  store ptr %0, ptr %.addr, align 8
  %this1 = load ptr, ptr %this.addr, align 8
  %next_ = getelementptr inbounds %"class.absl::random_internal::PoolURBG.43", ptr %this1, i32 0, i32 0
  store i64 9, ptr %next_, align 8
  ret void
}

; Function Attrs: mustprogress uwtable
define linkonce_odr dso_local noundef i32 @_ZN4absl15random_internal8PoolURBGIjLm8EEclEv(ptr noundef nonnull align 8 dereferenceable(40) %this) #4 comdat align 2 {
entry:
  %this.addr = alloca ptr, align 8
  %agg.tmp = alloca %"class.absl::Span.34", align 8
  store ptr %this, ptr %this.addr, align 8
  %this1 = load ptr, ptr %this.addr, align 8
  %next_ = getelementptr inbounds %"class.absl::random_internal::PoolURBG.43", ptr %this1, i32 0, i32 0
  %0 = load i64, ptr %next_, align 8
  %cmp = icmp uge i64 %0, 8
  br i1 %cmp, label %if.then, label %if.end

if.then:                                          ; preds = %entry
  %next_2 = getelementptr inbounds %"class.absl::random_internal::PoolURBG.43", ptr %this1, i32 0, i32 0
  %1 = load i64, ptr %next_2, align 8
  %cmp3 = icmp ugt i64 %1, 8
  %cond = select i1 %cmp3, i64 4, i64 0
  %next_4 = getelementptr inbounds %"class.absl::random_internal::PoolURBG.43", ptr %this1, i32 0, i32 0
  store i64 %cond, ptr %next_4, align 8
  %state_ = getelementptr inbounds %"class.absl::random_internal::PoolURBG.43", ptr %this1, i32 0, i32 1
  %arraydecay = getelementptr inbounds [8 x i32], ptr %state_, i64 0, i64 0
  %next_5 = getelementptr inbounds %"class.absl::random_internal::PoolURBG.43", ptr %this1, i32 0, i32 0
  %2 = load i64, ptr %next_5, align 8
  %add.ptr = getelementptr inbounds i32, ptr %arraydecay, i64 %2
  %next_6 = getelementptr inbounds %"class.absl::random_internal::PoolURBG.43", ptr %this1, i32 0, i32 0
  %3 = load i64, ptr %next_6, align 8
  %sub = sub i64 8, %3
  call void @_ZN4absl4SpanIjEC2EPjm(ptr noundef nonnull align 8 dereferenceable(16) %agg.tmp, ptr noundef %add.ptr, i64 noundef %sub) #3
  %4 = getelementptr inbounds { ptr, i64 }, ptr %agg.tmp, i32 0, i32 0
  %5 = load ptr, ptr %4, align 8
  %6 = getelementptr inbounds { ptr, i64 }, ptr %agg.tmp, i32 0, i32 1
  %7 = load i64, ptr %6, align 8
  call void @_ZN4absl15random_internal10RandenPoolIjE4FillENS_4SpanIjEE(ptr %5, i64 %7)
  br label %if.end

if.end:                                           ; preds = %if.then, %entry
  %state_7 = getelementptr inbounds %"class.absl::random_internal::PoolURBG.43", ptr %this1, i32 0, i32 1
  %next_8 = getelementptr inbounds %"class.absl::random_internal::PoolURBG.43", ptr %this1, i32 0, i32 0
  %8 = load i64, ptr %next_8, align 8
  %inc = add i64 %8, 1
  store i64 %inc, ptr %next_8, align 8
  %arrayidx = getelementptr inbounds [8 x i32], ptr %state_7, i64 0, i64 %8
  %9 = load i32, ptr %arrayidx, align 4
  ret i32 %9
}

; Function Attrs: mustprogress nounwind uwtable
define linkonce_odr dso_local void @_ZN4absl15random_internal8PoolURBGIjLm8EEC2Ev(ptr noundef nonnull align 8 dereferenceable(40) %this) unnamed_addr #5 comdat align 2 {
entry:
  %this.addr = alloca ptr, align 8
  store ptr %this, ptr %this.addr, align 8
  %this1 = load ptr, ptr %this.addr, align 8
  %next_ = getelementptr inbounds %"class.absl::random_internal::PoolURBG.43", ptr %this1, i32 0, i32 0
  store i64 9, ptr %next_, align 8
  ret void
}

; Function Attrs: mustprogress uwtable
define internal void @_ZN12_GLOBAL__N_136PoolURBGTypedTest_URBGInterface_TestIN4absl15random_internal8PoolURBGIjLm8EEEE8TestBodyEv(ptr noundef nonnull align 8 dereferenceable(16) %this) unnamed_addr #4 align 2 {
entry:
  %this.addr = alloca ptr, align 8
  %e = alloca %"class.absl::random_internal::PoolURBG.43", align 8
  %x = alloca %"class.absl::random_internal::PoolURBG.43", align 8
  %u0 = alloca %"class.absl::random_internal::PoolURBG.43", align 8
  %u1 = alloca %"class.absl::random_internal::PoolURBG.43", align 8
  store ptr %this, ptr %this.addr, align 8
  call void @_ZN4absl15random_internal8PoolURBGIjLm8EEC2Ev(ptr noundef nonnull align 8 dereferenceable(40) %e)
  call void @_ZN4absl15random_internal8PoolURBGIjLm8EEC2Ev(ptr noundef nonnull align 8 dereferenceable(40) %x)
  %call = call noundef i32 @_ZN4absl15random_internal8PoolURBGIjLm8EEclEv(ptr noundef nonnull align 8 dereferenceable(40) %e)
  call void @_ZN4absl15random_internal8PoolURBGIjLm8EEC2ERKS2_(ptr noundef nonnull align 8 dereferenceable(40) %u0, ptr noundef nonnull align 8 dereferenceable(40) %x)
  %call2 = call noundef i32 @_ZN4absl15random_internal8PoolURBGIjLm8EEclEv(ptr noundef nonnull align 8 dereferenceable(40) %u0)
  call void @_ZN4absl15random_internal8PoolURBGIjLm8EEC2ERKS2_(ptr noundef nonnull align 8 dereferenceable(40) %u1, ptr noundef nonnull align 8 dereferenceable(40) %e)
  %call3 = call noundef i32 @_ZN4absl15random_internal8PoolURBGIjLm8EEclEv(ptr noundef nonnull align 8 dereferenceable(40) %u1)
  ret void
}